target datalayout = "e-m:e-p270:32:32-p271:32:32-p272:64:64-i64:64-i128:128-f80:128-n8:16:32:64-S128"
target triple = "x86_64-pc-linux-gnu"

%struct.DdManager = type { %struct.DdNode, ptr, ptr, ptr, ptr, ptr, ptr, ptr, i32, i32, double, double, double, i32, i32, i32, i32, i32, i32, ptr, ptr, %struct.DdSubtable, i32, i32, i32, i32, i32, i32, i32, double, i32, i32, i32, ptr, i64, double, i32, ptr, ptr, ptr, ptr, ptr, ptr, ptr, i32, ptr, ptr, ptr, ptr, ptr, ptr, i32, i32, i32, double, i32, i32, i32, i32, double, double, i32, i32, i32, i32, i32, i32, i32, i32, i32, ptr, ptr, i32, i32, i32, i32, i32, i32, ptr, ptr, ptr, ptr, ptr, ptr, ptr, ptr, i32, i64, i64, i64, i32, i64, i64, double, double, double, double, double, double, i32, ptr, ptr, i64 }
%struct.DdNode = type { i32, i32, ptr, %union.anon, i64 }
%union.anon = type { %struct.DdChildren }
%struct.DdChildren = type { ptr, ptr }
%struct.DdSubtable = type { ptr, i32, i32, i32, i32, i32, i32, i32, i32, i32, i32, i32 }

; Function Attrs: nounwind uwtable
define internal i32 @ddWindowConv2(ptr noundef %0, i32 noundef %1, i32 noundef %2) #0 {
  %4 = alloca i32, align 4
  %5 = alloca ptr, align 8
  %6 = alloca i32, align 4
  %7 = alloca i32, align 4
  %8 = alloca i32, align 4
  %9 = alloca i32, align 4
  %10 = alloca i32, align 4
  %11 = alloca i32, align 4
  %12 = alloca ptr, align 8
  %13 = alloca i32, align 4
  %14 = alloca i32, align 4
  store ptr %0, ptr %5, align 8, !tbaa !3
  store i32 %1, ptr %6, align 4, !tbaa !8
  store i32 %2, ptr %7, align 4, !tbaa !8
  call void @llvm.lifetime.start.p0(i64 4, ptr %8) #5
  call void @llvm.lifetime.start.p0(i64 4, ptr %9) #5
  call void @llvm.lifetime.start.p0(i64 4, ptr %10) #5
  call void @llvm.lifetime.start.p0(i64 4, ptr %11) #5
  call void @llvm.lifetime.start.p0(i64 8, ptr %12) #5
  call void @llvm.lifetime.start.p0(i64 4, ptr %13) #5
  %15 = load i32, ptr %7, align 4, !tbaa !8
  %16 = load i32, ptr %6, align 4, !tbaa !8
  %17 = sub nsw i32 %15, %16
  %18 = icmp slt i32 %17, 1
  br i1 %18, label %19, label %24

19:                                               ; preds = %3
  %20 = load ptr, ptr %5, align 8, !tbaa !3
  %21 = load i32, ptr %6, align 4, !tbaa !8
  %22 = load i32, ptr %7, align 4, !tbaa !8
  %23 = call i32 @ddWindowConv2(ptr noundef %20, i32 noundef %21, i32 noundef %22)
  store i32 %23, ptr %4, align 4
  store i32 1, ptr %14, align 4
  br label %159

24:                                               ; preds = %3
  %25 = load i32, ptr %7, align 4, !tbaa !8
  %26 = load i32, ptr %6, align 4, !tbaa !8
  %27 = sub nsw i32 %25, %26
  store i32 %27, ptr %10, align 4, !tbaa !8
  %28 = load i32, ptr %10, align 4, !tbaa !8
  %29 = sext i32 %28 to i64
  %30 = mul i64 4, %29
  %31 = call noalias ptr @malloc(i64 noundef %30) #6
  store ptr %31, ptr %12, align 8, !tbaa !32
  %32 = load ptr, ptr %12, align 8, !tbaa !32
  %33 = icmp eq ptr %32, null
  br i1 %33, label %34, label %37

34:                                               ; preds = %24
  %35 = load ptr, ptr %5, align 8, !tbaa !3
  %36 = getelementptr inbounds nuw %struct.DdManager, ptr %35, i32 0, i32 86
  store i32 1, ptr %36, align 8, !tbaa !33
  store i32 0, ptr %4, align 4
  store i32 1, ptr %14, align 4
  br label %159

37:                                               ; preds = %24
  store i32 0, ptr %8, align 4, !tbaa !8
  br label %38

38:                                               ; preds = %47, %37
  %39 = load i32, ptr %8, align 4, !tbaa !8
  %40 = load i32, ptr %10, align 4, !tbaa !8
  %41 = icmp slt i32 %39, %40
  br i1 %41, label %42, label %50

42:                                               ; preds = %38
  %43 = load ptr, ptr %12, align 8, !tbaa !32
  %44 = load i32, ptr %8, align 4, !tbaa !8
  %45 = sext i32 %44 to i64
  %46 = getelementptr inbounds i32, ptr %43, i64 %45
  store i32 1, ptr %46, align 4, !tbaa !8
  br label %47

47:                                               ; preds = %42
  %48 = load i32, ptr %8, align 4, !tbaa !8
  %49 = add nsw i32 %48, 1
  store i32 %49, ptr %8, align 4, !tbaa !8
  br label %38, !llvm.loop !34

50:                                               ; preds = %38
  %51 = load ptr, ptr %5, align 8, !tbaa !3
  %52 = getelementptr inbounds nuw %struct.DdManager, ptr %51, i32 0, i32 23
  %53 = load i32, ptr %52, align 4, !tbaa !10
  %54 = load ptr, ptr %5, align 8, !tbaa !3
  %55 = getelementptr inbounds nuw %struct.DdManager, ptr %54, i32 0, i32 36
  %56 = load i32, ptr %55, align 8, !tbaa !27
  %57 = sub i32 %53, %56
  store i32 %57, ptr %9, align 4, !tbaa !8
  br label %58

58:                                               ; preds = %149, %50
  store i32 0, ptr %11, align 4, !tbaa !8
  store i32 0, ptr %8, align 4, !tbaa !8
  br label %59

59:                                               ; preds = %145, %58
  %60 = load i32, ptr %8, align 4, !tbaa !8
  %61 = load i32, ptr %10, align 4, !tbaa !8
  %62 = icmp slt i32 %60, %61
  br i1 %62, label %63, label %148

63:                                               ; preds = %59
  %64 = load ptr, ptr %12, align 8, !tbaa !32
  %65 = load i32, ptr %8, align 4, !tbaa !8
  %66 = sext i32 %65 to i64
  %67 = getelementptr inbounds i32, ptr %64, i64 %66
  %68 = load i32, ptr %67, align 4, !tbaa !8
  %69 = icmp ne i32 %68, 0
  br i1 %69, label %70, label %144

70:                                               ; preds = %63
  %71 = load i32, ptr %9, align 4, !tbaa !8
  store i32 %71, ptr %13, align 4, !tbaa !8
  %72 = load ptr, ptr %5, align 8, !tbaa !3
  %73 = load i32, ptr %8, align 4, !tbaa !8
  %74 = load i32, ptr %6, align 4, !tbaa !8
  %75 = add nsw i32 %73, %74
  %76 = load i32, ptr %8, align 4, !tbaa !8
  %77 = load i32, ptr %6, align 4, !tbaa !8
  %78 = add nsw i32 %76, %77
  %79 = add nsw i32 %78, 1
  %80 = call i32 @cuddSwapInPlace(ptr noundef %72, i32 noundef %75, i32 noundef %79)
  store i32 %80, ptr %9, align 4, !tbaa !8
  %81 = load i32, ptr %9, align 4, !tbaa !8
  %82 = icmp eq i32 %81, 0
  br i1 %82, label %83, label %90

83:                                               ; preds = %70
  %84 = load ptr, ptr %12, align 8, !tbaa !32
  %85 = icmp ne ptr %84, null
  br i1 %85, label %86, label %88

86:                                               ; preds = %83
  %87 = load ptr, ptr %12, align 8, !tbaa !32
  call void @free(ptr noundef %87) #5
  store ptr null, ptr %12, align 8, !tbaa !32
  br label %89

88:                                               ; preds = %83
  br label %89

89:                                               ; preds = %88, %86
  store i32 0, ptr %4, align 4
  store i32 1, ptr %14, align 4
  br label %159

90:                                               ; preds = %70
  %91 = load i32, ptr %9, align 4, !tbaa !8
  %92 = load i32, ptr %13, align 4, !tbaa !8
  %93 = icmp sge i32 %91, %92
  br i1 %93, label %94, label %114

94:                                               ; preds = %90
  %95 = load ptr, ptr %5, align 8, !tbaa !3
  %96 = load i32, ptr %8, align 4, !tbaa !8
  %97 = load i32, ptr %6, align 4, !tbaa !8
  %98 = add nsw i32 %96, %97
  %99 = load i32, ptr %8, align 4, !tbaa !8
  %100 = load i32, ptr %6, align 4, !tbaa !8
  %101 = add nsw i32 %99, %100
  %102 = add nsw i32 %101, 1
  %103 = call i32 @cuddSwapInPlace(ptr noundef %95, i32 noundef %98, i32 noundef %102)
  store i32 %103, ptr %9, align 4, !tbaa !8
  %104 = load i32, ptr %9, align 4, !tbaa !8
  %105 = icmp eq i32 %104, 0
  br i1 %105, label %106, label %113

106:                                              ; preds = %94
  %107 = load ptr, ptr %12, align 8, !tbaa !32
  %108 = icmp ne ptr %107, null
  br i1 %108, label %109, label %111

109:                                              ; preds = %106
  %110 = load ptr, ptr %12, align 8, !tbaa !32
  call void @free(ptr noundef %110) #5
  store ptr null, ptr %12, align 8, !tbaa !32
  br label %112

111:                                              ; preds = %106
  br label %112

112:                                              ; preds = %111, %109
  store i32 0, ptr %4, align 4
  store i32 1, ptr %14, align 4
  br label %159

113:                                              ; preds = %94
  br label %114

114:                                              ; preds = %113, %90
  %115 = load i32, ptr %9, align 4, !tbaa !8
  %116 = load i32, ptr %13, align 4, !tbaa !8
  %117 = icmp slt i32 %115, %116
  br i1 %117, label %118, label %139

118:                                              ; preds = %114
  %119 = load i32, ptr %8, align 4, !tbaa !8
  %120 = load i32, ptr %10, align 4, !tbaa !8
  %121 = sub nsw i32 %120, 1
  %122 = icmp slt i32 %119, %121
  br i1 %122, label %123, label %129

123:                                              ; preds = %118
  %124 = load ptr, ptr %12, align 8, !tbaa !32
  %125 = load i32, ptr %8, align 4, !tbaa !8
  %126 = add nsw i32 %125, 1
  %127 = sext i32 %126 to i64
  %128 = getelementptr inbounds i32, ptr %124, i64 %127
  store i32 1, ptr %128, align 4, !tbaa !8
  br label %129

129:                                              ; preds = %123, %118
  %130 = load i32, ptr %8, align 4, !tbaa !8
  %131 = icmp sgt i32 %130, 0
  br i1 %131, label %132, label %138

132:                                              ; preds = %129
  %133 = load ptr, ptr %12, align 8, !tbaa !32
  %134 = load i32, ptr %8, align 4, !tbaa !8
  %135 = sub nsw i32 %134, 1
  %136 = sext i32 %135 to i64
  %137 = getelementptr inbounds i32, ptr %133, i64 %136
  store i32 1, ptr %137, align 4, !tbaa !8
  br label %138

138:                                              ; preds = %132, %129
  store i32 1, ptr %11, align 4, !tbaa !8
  br label %139

139:                                              ; preds = %138, %114
  %140 = load ptr, ptr %12, align 8, !tbaa !32
  %141 = load i32, ptr %8, align 4, !tbaa !8
  %142 = sext i32 %141 to i64
  %143 = getelementptr inbounds i32, ptr %140, i64 %142
  store i32 0, ptr %143, align 4, !tbaa !8
  br label %144

144:                                              ; preds = %139, %63
  br label %145

145:                                              ; preds = %144
  %146 = load i32, ptr %8, align 4, !tbaa !8
  %147 = add nsw i32 %146, 1
  store i32 %147, ptr %8, align 4, !tbaa !8
  br label %59, !llvm.loop !35

148:                                              ; preds = %59
  br label %149

149:                                              ; preds = %148
  %150 = load i32, ptr %11, align 4, !tbaa !8
  %151 = icmp ne i32 %150, 0
  br i1 %151, label %58, label %152, !llvm.loop !36

152:                                              ; preds = %149
  %153 = load ptr, ptr %12, align 8, !tbaa !32
  %154 = icmp ne ptr %153, null
  br i1 %154, label %155, label %157

155:                                              ; preds = %152
  %156 = load ptr, ptr %12, align 8, !tbaa !32
  call void @free(ptr noundef %156) #5
  store ptr null, ptr %12, align 8, !tbaa !32
  br label %158

157:                                              ; preds = %152
  br label %158

158:                                              ; preds = %157, %155
  store i32 1, ptr %4, align 4
  store i32 1, ptr %14, align 4
  br label %159

159:                                              ; preds = %158, %112, %89, %34, %19
  call void @llvm.lifetime.end.p0(i64 4, ptr %13) #5
  call void @llvm.lifetime.end.p0(i64 8, ptr %12) #5
  call void @llvm.lifetime.end.p0(i64 4, ptr %11) #5
  call void @llvm.lifetime.end.p0(i64 4, ptr %10) #5
  call void @llvm.lifetime.end.p0(i64 4, ptr %9) #5
  call void @llvm.lifetime.end.p0(i64 4, ptr %8) #5
  %160 = load i32, ptr %4, align 4
  ret i32 %160
}