; Function Attrs: nounwind uwtable
define internal fastcc range(i32 0, 2) i32 @ddWindowConv2(ptr noundef %0, i32 noundef %1, i32 noundef %2) unnamed_addr #0 {
  %4 = sub nsw i32 %2, %1
  %5 = icmp slt i32 %4, 1
  br i1 %5, label %tailrecurse, label %6

tailrecurse:                                      ; preds = %3, %tailrecurse
  br label %tailrecurse

6:                                                ; preds = %3
  %7 = zext nneg i32 %4 to i64
  %8 = shl nuw nsw i64 %7, 2
  %9 = tail call noalias ptr @malloc(i64 noundef %8) #6
  %10 = icmp eq ptr %9, null
  br i1 %10, label %11, label %.preheader

11:                                               ; preds = %6
  %12 = getelementptr inbounds nuw i8, ptr %0, i64 624
  store i32 1, ptr %12, align 8, !tbaa !29
  br label %49

.preheader:                                       ; preds = %6, %.preheader
  %indvars.iv = phi i64 [ %indvars.iv.next, %.preheader ], [ 0, %6 ]
  %13 = getelementptr inbounds nuw i32, ptr %9, i64 %indvars.iv
  store i32 1, ptr %13, align 4, !tbaa !30
  %indvars.iv.next = add nuw nsw i64 %indvars.iv, 1
  %exitcond.not = icmp eq i64 %indvars.iv.next, %7
  br i1 %exitcond.not, label %14, label %.preheader, !llvm.loop !33

14:                                               ; preds = %.preheader
  %15 = getelementptr inbounds nuw i8, ptr %0, i64 228
  %16 = load i32, ptr %15, align 4, !tbaa !3
  %17 = getelementptr inbounds nuw i8, ptr %0, i64 304
  %18 = load i32, ptr %17, align 8, !tbaa !24
  %19 = sub i32 %16, %18
  %20 = add nsw i32 %4, -1
  %21 = sext i32 %20 to i64
  %invariant.op = add i32 %1, 1
  br label %22

22:                                               ; preds = %.backedge, %14
  %indvars.iv80 = phi i64 [ 0, %14 ], [ %indvars.iv80.be, %.backedge ]
  %.05578 = phi i32 [ 0, %14 ], [ %.05578.be, %.backedge ]
  %.15975 = phi i32 [ %19, %14 ], [ %.3, %.backedge ]
  %23 = getelementptr inbounds nuw i32, ptr %9, i64 %indvars.iv80
  %24 = load i32, ptr %23, align 4, !tbaa !30
  %.not65 = icmp eq i32 %24, 0
  br i1 %.not65, label %46, label %25

25:                                               ; preds = %22
  %indvars82 = trunc i64 %indvars.iv80 to i32
  %.reass = add i32 %invariant.op, %indvars82
  %26 = trunc i64 %indvars.iv80 to i32
  %27 = add i32 %1, %26
  %28 = tail call i32 @cuddSwapInPlace(ptr noundef %0, i32 noundef %27, i32 noundef %.reass) #5
  %29 = icmp eq i32 %28, 0
  br i1 %29, label %30, label %31

30:                                               ; preds = %25
  tail call void @free(ptr noundef nonnull %9) #5
  br label %49

31:                                               ; preds = %25
  %.not66 = icmp slt i32 %28, %.15975
  br i1 %.not66, label %36, label %32

32:                                               ; preds = %31
  %33 = tail call i32 @cuddSwapInPlace(ptr noundef %0, i32 noundef %27, i32 noundef %.reass) #5
  %34 = icmp eq i32 %33, 0
  br i1 %34, label %35, label %36

35:                                               ; preds = %32
  tail call void @free(ptr noundef nonnull %9) #5
  br label %49

36:                                               ; preds = %32, %31
  %.260 = phi i32 [ %33, %32 ], [ %28, %31 ]
  %37 = icmp slt i32 %.260, %.15975
  br i1 %37, label %38, label %45

38:                                               ; preds = %36
  %39 = icmp slt i64 %indvars.iv80, %21
  br i1 %39, label %40, label %42

40:                                               ; preds = %38
  %41 = getelementptr inbounds nuw i8, ptr %23, i64 4
  store i32 1, ptr %41, align 4, !tbaa !30
  br label %42

42:                                               ; preds = %40, %38
  %.not67 = icmp eq i64 %indvars.iv80, 0
  br i1 %.not67, label %45, label %43

43:                                               ; preds = %42
  %44 = getelementptr i8, ptr %23, i64 -4
  store i32 1, ptr %44, align 4, !tbaa !30
  br label %45

45:                                               ; preds = %42, %43, %36
  %.1 = phi i32 [ %.05578, %36 ], [ 1, %43 ], [ 1, %42 ]
  store i32 0, ptr %23, align 4, !tbaa !30
  br label %46

46:                                               ; preds = %22, %45
  %.3 = phi i32 [ %.260, %45 ], [ %.15975, %22 ]
  %.2 = phi i32 [ %.1, %45 ], [ %.05578, %22 ]
  %indvars.iv.next81 = add nuw nsw i64 %indvars.iv80, 1
  %exitcond84.not = icmp eq i64 %indvars.iv.next81, %7
  br i1 %exitcond84.not, label %47, label %.backedge

.backedge:                                        ; preds = %46, %47
  %indvars.iv80.be = phi i64 [ %indvars.iv.next81, %46 ], [ 0, %47 ]
  %.05578.be = phi i32 [ %.2, %46 ], [ 0, %47 ]
  br label %22, !llvm.loop !34

47:                                               ; preds = %46
  %.not = icmp eq i32 %.2, 0
  br i1 %.not, label %48, label %.backedge

48:                                               ; preds = %47
  tail call void @free(ptr noundef nonnull %9) #5
  br label %49

49:                                               ; preds = %48, %35, %30, %11
  %.0 = phi i32 [ 0, %11 ], [ 0, %30 ], [ 0, %35 ], [ 1, %48 ]
  ret i32 %.0
}